target datalayout = "e-m:e-p270:32:32-p271:32:32-p272:64:64-i64:64-i128:128-f80:128-n8:16:32:64-S128"
target triple = "x86_64-pc-linux-gnu"

%struct.st_str_end_key = type { ptr, ptr }

; Function Attrs: nounwind sspstrong uwtable
define internal i32 @str_end_cmp(i64 noundef %0, i64 noundef %1) #0 {
  %3 = alloca i32, align 4
  %4 = alloca i64, align 8
  %5 = alloca i64, align 8
  %6 = alloca ptr, align 8
  %7 = alloca ptr, align 8
  %8 = alloca ptr, align 8
  %9 = alloca ptr, align 8
  %10 = alloca i32, align 4
  %11 = alloca i32, align 4
  store i64 %0, ptr %4, align 8, !tbaa !15
  store i64 %1, ptr %5, align 8, !tbaa !15
  call void @llvm.lifetime.start.p0(i64 8, ptr %6) #13
  call void @llvm.lifetime.start.p0(i64 8, ptr %7) #13
  call void @llvm.lifetime.start.p0(i64 8, ptr %8) #13
  call void @llvm.lifetime.start.p0(i64 8, ptr %9) #13
  call void @llvm.lifetime.start.p0(i64 4, ptr %10) #13
  %12 = load i64, ptr %4, align 8, !tbaa !15
  %13 = inttoptr i64 %12 to ptr
  store ptr %13, ptr %6, align 8, !tbaa !12
  %14 = load i64, ptr %5, align 8, !tbaa !15
  %15 = inttoptr i64 %14 to ptr
  store ptr %15, ptr %7, align 8, !tbaa !12
  %16 = load ptr, ptr %6, align 8, !tbaa !12
  %17 = getelementptr inbounds nuw %struct.st_str_end_key, ptr %16, i32 0, i32 1
  %18 = load ptr, ptr %17, align 8, !tbaa !18
  %19 = load ptr, ptr %6, align 8, !tbaa !12
  %20 = getelementptr inbounds nuw %struct.st_str_end_key, ptr %19, i32 0, i32 0
  %21 = load ptr, ptr %20, align 8, !tbaa !20
  %22 = ptrtoint ptr %18 to i64
  %23 = ptrtoint ptr %21 to i64
  %24 = sub i64 %22, %23
  %25 = load ptr, ptr %7, align 8, !tbaa !12
  %26 = getelementptr inbounds nuw %struct.st_str_end_key, ptr %25, i32 0, i32 1
  %27 = load ptr, ptr %26, align 8, !tbaa !18
  %28 = load ptr, ptr %7, align 8, !tbaa !12
  %29 = getelementptr inbounds nuw %struct.st_str_end_key, ptr %28, i32 0, i32 0
  %30 = load ptr, ptr %29, align 8, !tbaa !20
  %31 = ptrtoint ptr %27 to i64
  %32 = ptrtoint ptr %30 to i64
  %33 = sub i64 %31, %32
  %34 = icmp ne i64 %24, %33
  br i1 %34, label %35, label %36

35:                                               ; preds = %2
  store i32 1, ptr %3, align 4
  store i32 1, ptr %11, align 4
  br label %67

36:                                               ; preds = %2
  %37 = load ptr, ptr %6, align 8, !tbaa !12
  %38 = getelementptr inbounds nuw %struct.st_str_end_key, ptr %37, i32 0, i32 0
  %39 = load ptr, ptr %38, align 8, !tbaa !20
  store ptr %39, ptr %8, align 8, !tbaa !7
  %40 = load ptr, ptr %7, align 8, !tbaa !12
  %41 = getelementptr inbounds nuw %struct.st_str_end_key, ptr %40, i32 0, i32 0
  %42 = load ptr, ptr %41, align 8, !tbaa !20
  store ptr %42, ptr %9, align 8, !tbaa !7
  br label %43

43:                                               ; preds = %61, %36
  %44 = load ptr, ptr %8, align 8, !tbaa !7
  %45 = load ptr, ptr %6, align 8, !tbaa !12
  %46 = getelementptr inbounds nuw %struct.st_str_end_key, ptr %45, i32 0, i32 1
  %47 = load ptr, ptr %46, align 8, !tbaa !18
  %48 = icmp ult ptr %44, %47
  br i1 %48, label %49, label %66

49:                                               ; preds = %43
  %50 = load ptr, ptr %8, align 8, !tbaa !7
  %51 = load i8, ptr %50, align 1, !tbaa !17
  %52 = zext i8 %51 to i32
  %53 = load ptr, ptr %9, align 8, !tbaa !7
  %54 = load i8, ptr %53, align 1, !tbaa !17
  %55 = zext i8 %54 to i32
  %56 = sub i32 %52, %55
  store i32 %56, ptr %10, align 4, !tbaa !13
  %57 = load i32, ptr %10, align 4, !tbaa !13
  %58 = icmp ne i32 %57, 0
  br i1 %58, label %59, label %61

59:                                               ; preds = %49
  %60 = load i32, ptr %10, align 4, !tbaa !13
  store i32 %60, ptr %3, align 4
  store i32 1, ptr %11, align 4
  br label %67

61:                                               ; preds = %49
  %62 = load ptr, ptr %8, align 8, !tbaa !7
  %63 = getelementptr i8, ptr %62, i32 1
  store ptr %63, ptr %8, align 8, !tbaa !7
  %64 = load ptr, ptr %9, align 8, !tbaa !7
  %65 = getelementptr i8, ptr %64, i32 1
  store ptr %65, ptr %9, align 8, !tbaa !7
  br label %43, !llvm.loop !21

66:                                               ; preds = %43
  store i32 0, ptr %3, align 4
  store i32 1, ptr %11, align 4
  br label %67

67:                                               ; preds = %66, %59, %35
  call void @llvm.lifetime.end.p0(i64 4, ptr %10) #13
  call void @llvm.lifetime.end.p0(i64 8, ptr %9) #13
  call void @llvm.lifetime.end.p0(i64 8, ptr %8) #13
  call void @llvm.lifetime.end.p0(i64 8, ptr %7) #13
  call void @llvm.lifetime.end.p0(i64 8, ptr %6) #13
  %68 = load i32, ptr %3, align 4
  ret i32 %68
}